; Function Attrs: mustprogress nounwind uwtable
define hidden noundef i64 @_ZNK13ArrayCopyNode22get_length_if_constantEP8PhaseGVN(ptr nocapture noundef nonnull readonly align 8 dereferenceable(152) %0, ptr nocapture noundef readonly %1) local_unnamed_addr #0 align 2 {
  %3 = getelementptr inbounds i8, ptr %0, i64 8
  %4 = load ptr, ptr %3, align 8
  %5 = getelementptr inbounds i8, ptr %4, i64 72
  %6 = load ptr, ptr %5, align 8
  %7 = getelementptr inbounds i8, ptr %1, i64 40
  %8 = load ptr, ptr %7, align 8
  %9 = getelementptr inbounds i8, ptr %6, i64 40
  %10 = load i32, ptr %9, align 8
  %11 = getelementptr inbounds i8, ptr %8, i64 16
  %12 = load ptr, ptr %11, align 8
  %13 = zext i32 %10 to i64
  %14 = getelementptr inbounds ptr, ptr %12, i64 %13
  %15 = load ptr, ptr %14, align 8
  %16 = load ptr, ptr @_ZN4Type3TOPE, align 8
  %17 = icmp eq ptr %15, %16
  br i1 %17, label %_ZNK4Node13find_long_conEi.exit, label %18

18:                                               ; preds = %2
  %19 = getelementptr inbounds i8, ptr %0, i64 128
  %20 = load i32, ptr %19, align 8
  %21 = and i32 %20, -2
  %spec.select.i = icmp eq i32 %21, 2
  br i1 %spec.select.i, label %22, label %31

22:                                               ; preds = %18
  %23 = tail call noundef ptr @_ZNK4Node14find_long_typeEv(ptr noundef nonnull align 8 dereferenceable(52) %6) #10
  %.not.i = icmp eq ptr %23, null
  br i1 %.not.i, label %30, label %24

24:                                               ; preds = %22
  %25 = getelementptr inbounds i8, ptr %23, i64 24
  %26 = load i64, ptr %25, align 8
  %27 = getelementptr inbounds i8, ptr %23, i64 32
  %28 = load i64, ptr %27, align 8
  %29 = icmp eq i64 %26, %28
  br i1 %29, label %_ZNK4Node13find_long_conEi.exit, label %30

30:                                               ; preds = %24, %22
  br label %_ZNK4Node13find_long_conEi.exit

31:                                               ; preds = %18
  %32 = tail call noundef ptr @_ZNK4Node13find_int_typeEv(ptr noundef nonnull align 8 dereferenceable(52) %6) #10
  %.not.i6 = icmp eq ptr %32, null
  br i1 %.not.i6, label %_ZNK4Node13find_long_conEi.exit, label %33

33:                                               ; preds = %31
  %34 = getelementptr inbounds i8, ptr %32, i64 24
  %35 = load i32, ptr %34, align 8
  %36 = getelementptr inbounds i8, ptr %32, i64 28
  %37 = load i32, ptr %36, align 4
  %38 = icmp eq i32 %35, %37
  %spec.select.i7 = select i1 %38, i32 %35, i32 -1
  %39 = sext i32 %spec.select.i7 to i64
  br label %_ZNK4Node13find_long_conEi.exit

_ZNK4Node13find_long_conEi.exit:                  ; preds = %33, %31, %30, %24, %2
  %.0 = phi i64 [ -1, %2 ], [ -1, %30 ], [ %26, %24 ], [ -1, %31 ], [ %39, %33 ]
  ret i64 %.0
}